target datalayout = "e-m:e-p270:32:32-p271:32:32-p272:64:64-i64:64-i128:128-f80:128-n8:16:32:64-S128"
target triple = "x86_64-pc-linux-gnu"

%struct.KDF_SCRYPT = type { ptr, ptr, ptr, i64, ptr, i64, i64, i64, i64, i64, ptr }

@.str = private unnamed_addr constant [51 x i8] c"../openssl/providers/implementations/kdfs/scrypt.c\00", align 1

; Function Attrs: nounwind uwtable
define internal void @kdf_scrypt_init(ptr noundef %0) #0 {
  %2 = alloca ptr, align 8
  store ptr %0, ptr %2, align 8, !tbaa !3
  %3 = load ptr, ptr %2, align 8, !tbaa !3
  %4 = getelementptr inbounds nuw %struct.KDF_SCRYPT, ptr %3, i32 0, i32 6
  store i64 1048576, ptr %4, align 8, !tbaa !19
  %5 = load ptr, ptr %2, align 8, !tbaa !3
  %6 = getelementptr inbounds nuw %struct.KDF_SCRYPT, ptr %5, i32 0, i32 7
  store i64 8, ptr %6, align 8, !tbaa !20
  %7 = load ptr, ptr %2, align 8, !tbaa !3
  %8 = getelementptr inbounds nuw %struct.KDF_SCRYPT, ptr %7, i32 0, i32 8
  store i64 1, ptr %8, align 8, !tbaa !21
  %9 = load ptr, ptr %2, align 8, !tbaa !3
  %10 = getelementptr inbounds nuw %struct.KDF_SCRYPT, ptr %9, i32 0, i32 9
  store i64 1074790400, ptr %10, align 8, !tbaa !22
  ret void
}

; Function Attrs: nounwind uwtable
define internal void @kdf_scrypt_reset(ptr noundef %0) #0 {
  %2 = alloca ptr, align 8
  %3 = alloca ptr, align 8
  store ptr %0, ptr %2, align 8, !tbaa !3
  call void @llvm.lifetime.start.p0(i64 8, ptr %3) #5
  %4 = load ptr, ptr %2, align 8, !tbaa !3
  store ptr %4, ptr %3, align 8, !tbaa !3
  %5 = load ptr, ptr %3, align 8, !tbaa !3
  %6 = getelementptr inbounds nuw %struct.KDF_SCRYPT, ptr %5, i32 0, i32 4
  %7 = load ptr, ptr %6, align 8, !tbaa !15
  call void @CRYPTO_free(ptr noundef %7, ptr noundef @.str, i32 noundef 94)
  %8 = load ptr, ptr %3, align 8, !tbaa !3
  %9 = getelementptr inbounds nuw %struct.KDF_SCRYPT, ptr %8, i32 0, i32 4
  store ptr null, ptr %9, align 8, !tbaa !15
  %10 = load ptr, ptr %3, align 8, !tbaa !3
  %11 = getelementptr inbounds nuw %struct.KDF_SCRYPT, ptr %10, i32 0, i32 2
  %12 = load ptr, ptr %11, align 8, !tbaa !17
  %13 = load ptr, ptr %3, align 8, !tbaa !3
  %14 = getelementptr inbounds nuw %struct.KDF_SCRYPT, ptr %13, i32 0, i32 3
  %15 = load i64, ptr %14, align 8, !tbaa !18
  call void @CRYPTO_clear_free(ptr noundef %12, i64 noundef %15, ptr noundef @.str, i32 noundef 96)
  %16 = load ptr, ptr %3, align 8, !tbaa !3
  %17 = getelementptr inbounds nuw %struct.KDF_SCRYPT, ptr %16, i32 0, i32 2
  store ptr null, ptr %17, align 8, !tbaa !17
  %18 = load ptr, ptr %3, align 8, !tbaa !3
  call void @kdf_scrypt_init(ptr noundef %18)
  call void @llvm.lifetime.end.p0(i64 8, ptr %3) #5
  ret void
}

; Function Attrs: nounwind uwtable
define internal void @kdf_scrypt_free(ptr noundef %0) #0 {
  %2 = alloca ptr, align 8
  %3 = alloca ptr, align 8
  store ptr %0, ptr %2, align 8, !tbaa !3
  call void @llvm.lifetime.start.p0(i64 8, ptr %3) #5
  %4 = load ptr, ptr %2, align 8, !tbaa !3
  store ptr %4, ptr %3, align 8, !tbaa !3
  %5 = load ptr, ptr %3, align 8, !tbaa !3
  %6 = icmp ne ptr %5, null
  br i1 %6, label %7, label %16

7:                                                ; preds = %1
  %8 = load ptr, ptr %3, align 8, !tbaa !3
  %9 = getelementptr inbounds nuw %struct.KDF_SCRYPT, ptr %8, i32 0, i32 1
  %10 = load ptr, ptr %9, align 8, !tbaa !14
  call void @CRYPTO_free(ptr noundef %10, ptr noundef @.str, i32 noundef 83)
  %11 = load ptr, ptr %3, align 8, !tbaa !3
  %12 = getelementptr inbounds nuw %struct.KDF_SCRYPT, ptr %11, i32 0, i32 10
  %13 = load ptr, ptr %12, align 8, !tbaa !13
  call void @EVP_MD_free(ptr noundef %13)
  %14 = load ptr, ptr %3, align 8, !tbaa !3
  call void @kdf_scrypt_reset(ptr noundef %14)
  %15 = load ptr, ptr %3, align 8, !tbaa !3
  call void @CRYPTO_free(ptr noundef %15, ptr noundef @.str, i32 noundef 86)
  br label %16

16:                                               ; preds = %7, %1
  call void @llvm.lifetime.end.p0(i64 8, ptr %3) #5
  ret void
}