; Function Attrs: nounwind uwtable
define internal void @kdf_scrypt_free(ptr noundef %0) #0 {
  %.not = icmp eq ptr %0, null
  br i1 %.not, label %17, label %2

2:                                                ; preds = %1
  %3 = getelementptr inbounds nuw i8, ptr %0, i64 8
  %4 = load ptr, ptr %3, align 8, !tbaa !17
  tail call void @CRYPTO_free(ptr noundef %4, ptr noundef nonnull @.str, i32 noundef 83) #7
  %5 = getelementptr inbounds nuw i8, ptr %0, i64 80
  %6 = load ptr, ptr %5, align 8, !tbaa !16
  tail call void @EVP_MD_free(ptr noundef %6) #7
  %7 = getelementptr inbounds nuw i8, ptr %0, i64 32
  %8 = load ptr, ptr %7, align 8, !tbaa !18
  tail call void @CRYPTO_free(ptr noundef %8, ptr noundef nonnull @.str, i32 noundef 94) #7
  store ptr null, ptr %7, align 8, !tbaa !18
  %9 = getelementptr inbounds nuw i8, ptr %0, i64 16
  %10 = load ptr, ptr %9, align 8, !tbaa !20
  %11 = getelementptr inbounds nuw i8, ptr %0, i64 24
  %12 = load i64, ptr %11, align 8, !tbaa !21
  tail call void @CRYPTO_clear_free(ptr noundef %10, i64 noundef %12, ptr noundef nonnull @.str, i32 noundef 96) #7
  store ptr null, ptr %9, align 8, !tbaa !20
  %13 = getelementptr inbounds nuw i8, ptr %0, i64 48
  store i64 1048576, ptr %13, align 8, !tbaa !12
  %14 = getelementptr inbounds nuw i8, ptr %0, i64 56
  store i64 8, ptr %14, align 8, !tbaa !13
  %15 = getelementptr inbounds nuw i8, ptr %0, i64 64
  store i64 1, ptr %15, align 8, !tbaa !14
  %16 = getelementptr inbounds nuw i8, ptr %0, i64 72
  store i64 1074790400, ptr %16, align 8, !tbaa !15
  tail call void @CRYPTO_free(ptr noundef nonnull %0, ptr noundef nonnull @.str, i32 noundef 86) #7
  br label %17

17:                                               ; preds = %2, %1
  ret void
}